target datalayout = "e-m:e-p270:32:32-p271:32:32-p272:64:64-i64:64-i128:128-f80:128-n8:16:32:64-S128"
target triple = "x86_64-pc-linux-gnu"

; Function Attrs: mustprogress uwtable
define ptr @newIncVPSC(i32 noundef %0, ptr noundef %1, i32 noundef %2, ptr noundef %3) #4 personality ptr @__gxx_personality_v0 {
  %5 = alloca i32, align 4
  %6 = alloca ptr, align 8
  %7 = alloca i32, align 4
  %8 = alloca ptr, align 8
  %9 = alloca ptr, align 8
  %10 = alloca i32, align 4
  store i32 %0, ptr %5, align 4, !tbaa !3
  store ptr %1, ptr %6, align 8, !tbaa !26
  store i32 %2, ptr %7, align 4, !tbaa !3
  store ptr %3, ptr %8, align 8, !tbaa !28
  %11 = call noalias noundef nonnull ptr @_Znwm(i64 noundef 112) #18
  %12 = load i32, ptr %5, align 4, !tbaa !3
  %13 = load ptr, ptr %6, align 8, !tbaa !26
  %14 = load i32, ptr %7, align 4, !tbaa !3
  %15 = load ptr, ptr %8, align 8, !tbaa !28
  invoke void @_ZN7IncVPSCC1EjPP8VariablejPP10Constraint(ptr noundef nonnull align 8 dereferenceable(112) %11, i32 noundef %12, ptr noundef %13, i32 noundef %14, ptr noundef %15)
          to label %16 unwind label %17

16:                                               ; preds = %4
  ret ptr %11

17:                                               ; preds = %4
  %18 = landingpad { ptr, i32 }
          cleanup
  %19 = extractvalue { ptr, i32 } %18, 0
  store ptr %19, ptr %9, align 8
  %20 = extractvalue { ptr, i32 } %18, 1
  store i32 %20, ptr %10, align 4
  call void @_ZdlPvm(ptr noundef %11, i64 noundef 112) #19
  br label %21

21:                                               ; preds = %17
  %22 = load ptr, ptr %9, align 8
  %23 = load i32, ptr %10, align 4
  %24 = insertvalue { ptr, i32 } poison, ptr %22, 0
  %25 = insertvalue { ptr, i32 } %24, i32 %23, 1
  resume { ptr, i32 } %25
}