; Function Attrs: mustprogress uwtable
define noundef nonnull ptr @newIncVPSC(i32 noundef %0, ptr noundef %1, i32 noundef %2, ptr noundef %3) local_unnamed_addr #3 personality ptr @__gxx_personality_v0 {
  %5 = tail call noalias noundef nonnull dereferenceable(112) ptr @_Znwm(i64 noundef 112) #21
  invoke void @_ZN7IncVPSCC1EjPP8VariablejPP10Constraint(ptr noundef nonnull align 8 dereferenceable(112) %5, i32 noundef %0, ptr noundef %1, i32 noundef %2, ptr noundef %3)
          to label %6 unwind label %7

6:                                                ; preds = %4
  ret ptr %5

7:                                                ; preds = %4
  %8 = landingpad { ptr, i32 }
          cleanup
  tail call void @_ZdlPvm(ptr noundef nonnull %5, i64 noundef 112) #22
  resume { ptr, i32 } %8
}